target datalayout = "e-m:e-p270:32:32-p271:32:32-p272:64:64-i64:64-i128:128-f80:128-n8:16:32:64-S128"
target triple = "x86_64-pc-linux-gnu"

%struct._zval_struct = type { %union._zend_value, %union.anon, %union.anon.2 }
%union._zend_value = type { i64 }
%union.anon = type { i32 }
%union.anon.2 = type { i32 }
%struct._zend_string = type { %struct._zend_refcounted_h, i64, i64, [1 x i8] }
%struct._zend_refcounted_h = type { i32, %union.anon.3 }
%union.anon.3 = type { i32 }

; Function Attrs: nounwind uwtable
define hidden void @php_filter_unsafe_raw(ptr noundef %0, i64 noundef %1, ptr noundef %2, ptr noundef %3) #0 {
  %5 = alloca ptr, align 8
  %6 = alloca i64, align 8
  %7 = alloca ptr, align 8
  %8 = alloca ptr, align 8
  %9 = alloca [256 x i8], align 16
  store ptr %0, ptr %5, align 8, !tbaa !4
  store i64 %1, ptr %6, align 8, !tbaa !9
  store ptr %2, ptr %7, align 8, !tbaa !4
  store ptr %3, ptr %8, align 8, !tbaa !11
  %10 = load i64, ptr %6, align 8, !tbaa !9
  %11 = icmp ne i64 %10, 0
  br i1 %11, label %12, label %43

12:                                               ; preds = %4
  %13 = load ptr, ptr %5, align 8, !tbaa !4
  %14 = getelementptr inbounds nuw %struct._zval_struct, ptr %13, i32 0, i32 0
  %15 = load ptr, ptr %14, align 8, !tbaa !13
  %16 = getelementptr inbounds nuw %struct._zend_string, ptr %15, i32 0, i32 2
  %17 = load i64, ptr %16, align 8, !tbaa !14
  %18 = icmp ugt i64 %17, 0
  br i1 %18, label %19, label %43

19:                                               ; preds = %12
  call void @llvm.lifetime.start.p0(i64 256, ptr %9) #12
  call void @llvm.memset.p0.i64(ptr align 16 %9, i8 0, i64 256, i1 false)
  %20 = load ptr, ptr %5, align 8, !tbaa !4
  %21 = load i64, ptr %6, align 8, !tbaa !9
  call void @php_filter_strip(ptr noundef %20, i64 noundef %21)
  %22 = load i64, ptr %6, align 8, !tbaa !9
  %23 = and i64 %22, 64
  %24 = icmp ne i64 %23, 0
  br i1 %24, label %25, label %27

25:                                               ; preds = %19
  %26 = getelementptr inbounds [256 x i8], ptr %9, i64 0, i64 38
  store i8 1, ptr %26, align 2, !tbaa !13
  br label %27

27:                                               ; preds = %25, %19
  %28 = load i64, ptr %6, align 8, !tbaa !9
  %29 = and i64 %28, 16
  %30 = icmp ne i64 %29, 0
  br i1 %30, label %31, label %33

31:                                               ; preds = %27
  %32 = getelementptr inbounds [256 x i8], ptr %9, i64 0, i64 0
  call void @llvm.memset.p0.i64(ptr align 16 %32, i8 1, i64 32, i1 false)
  br label %33

33:                                               ; preds = %31, %27
  %34 = load i64, ptr %6, align 8, !tbaa !9
  %35 = and i64 %34, 32
  %36 = icmp ne i64 %35, 0
  br i1 %36, label %37, label %40

37:                                               ; preds = %33
  %38 = getelementptr inbounds [256 x i8], ptr %9, i64 0, i64 0
  %39 = getelementptr inbounds i8, ptr %38, i64 127
  call void @llvm.memset.p0.i64(ptr align 1 %39, i8 1, i64 129, i1 false)
  br label %40

40:                                               ; preds = %37, %33
  %41 = load ptr, ptr %5, align 8, !tbaa !4
  %42 = getelementptr inbounds [256 x i8], ptr %9, i64 0, i64 0
  call void @php_filter_encode_html(ptr noundef %41, ptr noundef %42)
  call void @llvm.lifetime.end.p0(i64 256, ptr %9) #12
  br label %61

43:                                               ; preds = %12, %4
  %44 = load i64, ptr %6, align 8, !tbaa !9
  %45 = and i64 %44, 256
  %46 = icmp ne i64 %45, 0
  br i1 %46, label %47, label %60

47:                                               ; preds = %43
  %48 = load ptr, ptr %5, align 8, !tbaa !4
  %49 = getelementptr inbounds nuw %struct._zval_struct, ptr %48, i32 0, i32 0
  %50 = load ptr, ptr %49, align 8, !tbaa !13
  %51 = getelementptr inbounds nuw %struct._zend_string, ptr %50, i32 0, i32 2
  %52 = load i64, ptr %51, align 8, !tbaa !14
  %53 = icmp eq i64 %52, 0
  br i1 %53, label %54, label %60

54:                                               ; preds = %47
  %55 = load ptr, ptr %5, align 8, !tbaa !4
  call void @zval_ptr_dtor(ptr noundef %55)
  br label %56

56:                                               ; preds = %54
  %57 = load ptr, ptr %5, align 8, !tbaa !4
  %58 = getelementptr inbounds nuw %struct._zval_struct, ptr %57, i32 0, i32 1
  store i32 1, ptr %58, align 8, !tbaa !13
  br label %59

59:                                               ; preds = %56
  br label %60

60:                                               ; preds = %59, %47, %43
  br label %61

61:                                               ; preds = %60, %40
  ret void
}