; Function Attrs: nounwind uwtable
define hidden void @php_filter_unsafe_raw(ptr noundef %0, i64 noundef %1, ptr noundef readnone captures(none) %2, ptr noundef readnone captures(none) %3) local_unnamed_addr #0 {
  %5 = alloca [256 x i8], align 16
  %.not = icmp eq i64 %1, 0
  br i1 %.not, label %.thread, label %6

6:                                                ; preds = %4
  %7 = load ptr, ptr %0, align 8, !tbaa !4
  %8 = getelementptr inbounds nuw i8, ptr %7, i64 16
  %9 = load i64, ptr %8, align 8, !tbaa !7
  %.not11 = icmp eq i64 %9, 0
  br i1 %.not11, label %22, label %10

10:                                               ; preds = %6
  call void @llvm.lifetime.start.p0(i64 256, ptr nonnull %5) #9
  call void @llvm.memset.p0.i64(ptr noundef nonnull align 16 dereferenceable(256) %5, i8 0, i64 256, i1 false)
  tail call fastcc void @php_filter_strip(ptr noundef nonnull %0, i64 noundef %1)
  %11 = and i64 %1, 64
  %.not13 = icmp eq i64 %11, 0
  br i1 %.not13, label %14, label %12

12:                                               ; preds = %10
  %13 = getelementptr inbounds nuw i8, ptr %5, i64 38
  store i8 1, ptr %13, align 2, !tbaa !4
  br label %14

14:                                               ; preds = %12, %10
  %15 = and i64 %1, 16
  %.not14 = icmp eq i64 %15, 0
  br i1 %.not14, label %17, label %16

16:                                               ; preds = %14
  call void @llvm.memset.p0.i64(ptr noundef nonnull align 16 dereferenceable(32) %5, i8 1, i64 32, i1 false)
  br label %17

17:                                               ; preds = %16, %14
  %18 = and i64 %1, 32
  %.not15 = icmp eq i64 %18, 0
  br i1 %.not15, label %21, label %19

19:                                               ; preds = %17
  %20 = getelementptr inbounds nuw i8, ptr %5, i64 127
  call void @llvm.memset.p0.i64(ptr noundef nonnull align 1 dereferenceable(129) %20, i8 1, i64 129, i1 false)
  br label %21

21:                                               ; preds = %19, %17
  call fastcc void @php_filter_encode_html(ptr noundef nonnull %0, ptr noundef %5)
  call void @llvm.lifetime.end.p0(i64 256, ptr nonnull %5) #9
  br label %.thread

22:                                               ; preds = %6
  %23 = and i64 %1, 256
  %.not12 = icmp eq i64 %23, 0
  br i1 %.not12, label %.thread, label %24

24:                                               ; preds = %22
  tail call void @zval_ptr_dtor(ptr noundef nonnull %0) #9
  %25 = getelementptr inbounds nuw i8, ptr %0, i64 8
  store i32 1, ptr %25, align 8, !tbaa !4
  br label %.thread

.thread:                                          ; preds = %4, %22, %24, %21
  ret void
}